target datalayout = "e-m:e-p270:32:32-p271:32:32-p272:64:64-i64:64-i128:128-f80:128-n8:16:32:64-S128"
target triple = "x86_64-pc-linux-gnu"

%struct.mbedtls_ssl_ticket_context = type { [2 x %struct.mbedtls_ssl_ticket_key], i8, i32, ptr, ptr }
%struct.mbedtls_ssl_ticket_key = type { [4 x i8], i64, i32, %struct.mbedtls_cipher_context_t }
%struct.mbedtls_cipher_context_t = type { ptr, i32, i32, ptr, ptr, [16 x i8], i64, [16 x i8], i64, ptr, ptr }
%struct.mbedtls_cipher_info_t = type { ptr, i32 }

; Function Attrs: inlinehint nounwind uwtable
define internal i32 @mbedtls_cipher_get_key_bitlen(ptr noundef %0) #3 {
  %2 = alloca i32, align 4
  %3 = alloca ptr, align 8
  store ptr %0, ptr %3, align 8, !tbaa !26
  %4 = load ptr, ptr %3, align 8, !tbaa !26
  %5 = getelementptr inbounds nuw %struct.mbedtls_cipher_context_t, ptr %4, i32 0, i32 0
  %6 = load ptr, ptr %5, align 8, !tbaa !28
  %7 = icmp eq ptr %6, null
  br i1 %7, label %8, label %9

8:                                                ; preds = %1
  store i32 0, ptr %2, align 4
  br label %18

9:                                                ; preds = %1
  %10 = load ptr, ptr %3, align 8, !tbaa !26
  %11 = getelementptr inbounds nuw %struct.mbedtls_cipher_context_t, ptr %10, i32 0, i32 0
  %12 = load ptr, ptr %11, align 8, !tbaa !28
  %13 = getelementptr inbounds nuw %struct.mbedtls_cipher_info_t, ptr %12, i32 0, i32 1
  %14 = load i32, ptr %13, align 8
  %15 = lshr i32 %14, 8
  %16 = and i32 %15, 15
  %17 = shl i32 %16, 6
  store i32 %17, ptr %2, align 4
  br label %18

18:                                               ; preds = %9, %8
  %19 = load i32, ptr %2, align 4
  ret i32 %19
}

; Function Attrs: nounwind uwtable
define internal i32 @ssl_ticket_gen_key(ptr noundef %0, i8 noundef zeroext %1) #0 {
  %3 = alloca i32, align 4
  %4 = alloca ptr, align 8
  %5 = alloca i8, align 1
  %6 = alloca i32, align 4
  %7 = alloca [32 x i8], align 16
  %8 = alloca ptr, align 8
  %9 = alloca i32, align 4
  store ptr %0, ptr %4, align 8, !tbaa !3
  store i8 %1, ptr %5, align 1, !tbaa !16
  call void @llvm.lifetime.start.p0(i64 4, ptr %6) #10
  store i32 -110, ptr %6, align 4, !tbaa !12
  call void @llvm.lifetime.start.p0(i64 32, ptr %7) #10
  call void @llvm.memset.p0.i64(ptr align 16 %7, i8 0, i64 32, i1 false)
  call void @llvm.lifetime.start.p0(i64 8, ptr %8) #10
  %10 = load ptr, ptr %4, align 8, !tbaa !3
  %11 = getelementptr inbounds nuw %struct.mbedtls_ssl_ticket_context, ptr %10, i32 0, i32 0
  %12 = getelementptr inbounds [2 x %struct.mbedtls_ssl_ticket_key], ptr %11, i64 0, i64 0
  %13 = load i8, ptr %5, align 1, !tbaa !16
  %14 = zext i8 %13 to i32
  %15 = sext i32 %14 to i64
  %16 = getelementptr inbounds %struct.mbedtls_ssl_ticket_key, ptr %12, i64 %15
  store ptr %16, ptr %8, align 8, !tbaa !17
  %17 = call i64 @time(ptr noundef null) #10
  %18 = load ptr, ptr %8, align 8, !tbaa !17
  %19 = getelementptr inbounds nuw %struct.mbedtls_ssl_ticket_key, ptr %18, i32 0, i32 1
  store i64 %17, ptr %19, align 8, !tbaa !20
  %20 = load ptr, ptr %4, align 8, !tbaa !3
  %21 = getelementptr inbounds nuw %struct.mbedtls_ssl_ticket_context, ptr %20, i32 0, i32 2
  %22 = load i32, ptr %21, align 4, !tbaa !19
  %23 = load ptr, ptr %8, align 8, !tbaa !17
  %24 = getelementptr inbounds nuw %struct.mbedtls_ssl_ticket_key, ptr %23, i32 0, i32 2
  store i32 %22, ptr %24, align 8, !tbaa !25
  %25 = load ptr, ptr %4, align 8, !tbaa !3
  %26 = getelementptr inbounds nuw %struct.mbedtls_ssl_ticket_context, ptr %25, i32 0, i32 3
  %27 = load ptr, ptr %26, align 8, !tbaa !31
  %28 = load ptr, ptr %4, align 8, !tbaa !3
  %29 = getelementptr inbounds nuw %struct.mbedtls_ssl_ticket_context, ptr %28, i32 0, i32 4
  %30 = load ptr, ptr %29, align 8, !tbaa !32
  %31 = load ptr, ptr %8, align 8, !tbaa !17
  %32 = getelementptr inbounds nuw %struct.mbedtls_ssl_ticket_key, ptr %31, i32 0, i32 0
  %33 = getelementptr inbounds [4 x i8], ptr %32, i64 0, i64 0
  %34 = call i32 %27(ptr noundef %30, ptr noundef %33, i64 noundef 4)
  store i32 %34, ptr %6, align 4, !tbaa !12
  %35 = icmp ne i32 %34, 0
  br i1 %35, label %36, label %38

36:                                               ; preds = %2
  %37 = load i32, ptr %6, align 4, !tbaa !12
  store i32 %37, ptr %3, align 4
  store i32 1, ptr %9, align 4
  br label %60

38:                                               ; preds = %2
  %39 = load ptr, ptr %4, align 8, !tbaa !3
  %40 = getelementptr inbounds nuw %struct.mbedtls_ssl_ticket_context, ptr %39, i32 0, i32 3
  %41 = load ptr, ptr %40, align 8, !tbaa !31
  %42 = load ptr, ptr %4, align 8, !tbaa !3
  %43 = getelementptr inbounds nuw %struct.mbedtls_ssl_ticket_context, ptr %42, i32 0, i32 4
  %44 = load ptr, ptr %43, align 8, !tbaa !32
  %45 = getelementptr inbounds [32 x i8], ptr %7, i64 0, i64 0
  %46 = call i32 %41(ptr noundef %44, ptr noundef %45, i64 noundef 32)
  store i32 %46, ptr %6, align 4, !tbaa !12
  %47 = icmp ne i32 %46, 0
  br i1 %47, label %48, label %50

48:                                               ; preds = %38
  %49 = load i32, ptr %6, align 4, !tbaa !12
  store i32 %49, ptr %3, align 4
  store i32 1, ptr %9, align 4
  br label %60

50:                                               ; preds = %38
  %51 = load ptr, ptr %8, align 8, !tbaa !17
  %52 = getelementptr inbounds nuw %struct.mbedtls_ssl_ticket_key, ptr %51, i32 0, i32 3
  %53 = getelementptr inbounds [32 x i8], ptr %7, i64 0, i64 0
  %54 = load ptr, ptr %8, align 8, !tbaa !17
  %55 = getelementptr inbounds nuw %struct.mbedtls_ssl_ticket_key, ptr %54, i32 0, i32 3
  %56 = call i32 @mbedtls_cipher_get_key_bitlen(ptr noundef %55)
  %57 = call i32 @mbedtls_cipher_setkey(ptr noundef %52, ptr noundef %53, i32 noundef %56, i32 noundef 1)
  store i32 %57, ptr %6, align 4, !tbaa !12
  %58 = getelementptr inbounds [32 x i8], ptr %7, i64 0, i64 0
  call void @mbedtls_platform_zeroize(ptr noundef %58, i64 noundef 32)
  %59 = load i32, ptr %6, align 4, !tbaa !12
  store i32 %59, ptr %3, align 4
  store i32 1, ptr %9, align 4
  br label %60

60:                                               ; preds = %50, %48, %36
  call void @llvm.lifetime.end.p0(i64 8, ptr %8) #10
  call void @llvm.lifetime.end.p0(i64 32, ptr %7) #10
  call void @llvm.lifetime.end.p0(i64 4, ptr %6) #10
  %61 = load i32, ptr %3, align 4
  ret i32 %61
}

; Function Attrs: nounwind uwtable
define internal i32 @ssl_ticket_update_keys(ptr noundef %0) #0 {
  %2 = alloca i32, align 4
  %3 = alloca ptr, align 8
  %4 = alloca ptr, align 8
  %5 = alloca i64, align 8
  %6 = alloca i64, align 8
  %7 = alloca i32, align 4
  store ptr %0, ptr %3, align 8, !tbaa !3
  call void @llvm.lifetime.start.p0(i64 8, ptr %4) #10
  %8 = load ptr, ptr %3, align 8, !tbaa !3
  %9 = getelementptr inbounds nuw %struct.mbedtls_ssl_ticket_context, ptr %8, i32 0, i32 0
  %10 = getelementptr inbounds [2 x %struct.mbedtls_ssl_ticket_key], ptr %9, i64 0, i64 0
  %11 = load ptr, ptr %3, align 8, !tbaa !3
  %12 = getelementptr inbounds nuw %struct.mbedtls_ssl_ticket_context, ptr %11, i32 0, i32 1
  %13 = load i8, ptr %12, align 8, !tbaa !14
  %14 = zext i8 %13 to i32
  %15 = sext i32 %14 to i64
  %16 = getelementptr inbounds %struct.mbedtls_ssl_ticket_key, ptr %10, i64 %15
  store ptr %16, ptr %4, align 8, !tbaa !17
  %17 = load ptr, ptr %4, align 8, !tbaa !17
  %18 = getelementptr inbounds nuw %struct.mbedtls_ssl_ticket_key, ptr %17, i32 0, i32 2
  %19 = load i32, ptr %18, align 8, !tbaa !25
  %20 = icmp ne i32 %19, 0
  br i1 %20, label %21, label %54

21:                                               ; preds = %1
  call void @llvm.lifetime.start.p0(i64 8, ptr %5) #10
  %22 = call i64 @time(ptr noundef null) #10
  store i64 %22, ptr %5, align 8, !tbaa !10
  call void @llvm.lifetime.start.p0(i64 8, ptr %6) #10
  %23 = load ptr, ptr %4, align 8, !tbaa !17
  %24 = getelementptr inbounds nuw %struct.mbedtls_ssl_ticket_key, ptr %23, i32 0, i32 1
  %25 = load i64, ptr %24, align 8, !tbaa !20
  store i64 %25, ptr %6, align 8, !tbaa !10
  %26 = load i64, ptr %5, align 8, !tbaa !10
  %27 = load i64, ptr %6, align 8, !tbaa !10
  %28 = icmp sge i64 %26, %27
  br i1 %28, label %29, label %39

29:                                               ; preds = %21
  %30 = load i64, ptr %5, align 8, !tbaa !10
  %31 = load i64, ptr %6, align 8, !tbaa !10
  %32 = sub nsw i64 %30, %31
  %33 = load ptr, ptr %4, align 8, !tbaa !17
  %34 = getelementptr inbounds nuw %struct.mbedtls_ssl_ticket_key, ptr %33, i32 0, i32 2
  %35 = load i32, ptr %34, align 8, !tbaa !25
  %36 = zext i32 %35 to i64
  %37 = icmp ult i64 %32, %36
  br i1 %37, label %38, label %39

38:                                               ; preds = %29
  store i32 0, ptr %2, align 4
  store i32 1, ptr %7, align 4
  br label %53

39:                                               ; preds = %29, %21
  %40 = load ptr, ptr %3, align 8, !tbaa !3
  %41 = getelementptr inbounds nuw %struct.mbedtls_ssl_ticket_context, ptr %40, i32 0, i32 1
  %42 = load i8, ptr %41, align 8, !tbaa !14
  %43 = zext i8 %42 to i32
  %44 = sub nsw i32 1, %43
  %45 = trunc i32 %44 to i8
  %46 = load ptr, ptr %3, align 8, !tbaa !3
  %47 = getelementptr inbounds nuw %struct.mbedtls_ssl_ticket_context, ptr %46, i32 0, i32 1
  store i8 %45, ptr %47, align 8, !tbaa !14
  %48 = load ptr, ptr %3, align 8, !tbaa !3
  %49 = load ptr, ptr %3, align 8, !tbaa !3
  %50 = getelementptr inbounds nuw %struct.mbedtls_ssl_ticket_context, ptr %49, i32 0, i32 1
  %51 = load i8, ptr %50, align 8, !tbaa !14
  %52 = call i32 @ssl_ticket_gen_key(ptr noundef %48, i8 noundef zeroext %51)
  store i32 %52, ptr %2, align 4
  store i32 1, ptr %7, align 4
  br label %53

53:                                               ; preds = %39, %38
  call void @llvm.lifetime.end.p0(i64 8, ptr %6) #10
  call void @llvm.lifetime.end.p0(i64 8, ptr %5) #10
  br label %55

54:                                               ; preds = %1
  store i32 0, ptr %2, align 4
  store i32 1, ptr %7, align 4
  br label %55

55:                                               ; preds = %54, %53
  call void @llvm.lifetime.end.p0(i64 8, ptr %4) #10
  %56 = load i32, ptr %2, align 4
  ret i32 %56
}