; Function Attrs: nounwind uwtable
define internal fastcc i32 @ssl_ticket_update_keys(ptr noundef nonnull %0) unnamed_addr #2 {
  %2 = alloca [32 x i8], align 16
  %3 = getelementptr inbounds nuw i8, ptr %0, i64 240
  %4 = load i8, ptr %3, align 8, !tbaa !3
  %5 = zext i8 %4 to i64
  %6 = getelementptr inbounds nuw %struct.mbedtls_ssl_ticket_key, ptr %0, i64 %5
  %7 = getelementptr inbounds nuw i8, ptr %6, i64 16
  %8 = load i32, ptr %7, align 8, !tbaa !17
  %.not = icmp eq i32 %8, 0
  br i1 %.not, label %46, label %9

9:                                                ; preds = %1
  %10 = tail call i64 @time(ptr noundef null) #8
  %11 = getelementptr inbounds nuw i8, ptr %6, i64 8
  %12 = load i64, ptr %11, align 8, !tbaa !15
  %.not15 = icmp slt i64 %10, %12
  br i1 %.not15, label %18, label %13

13:                                               ; preds = %9
  %14 = sub nsw i64 %10, %12
  %15 = load i32, ptr %7, align 8, !tbaa !17
  %16 = zext i32 %15 to i64
  %17 = icmp ult i64 %14, %16
  br i1 %17, label %46, label %18

18:                                               ; preds = %13, %9
  %19 = load i8, ptr %3, align 8, !tbaa !3
  %20 = sub i8 1, %19
  store i8 %20, ptr %3, align 8, !tbaa !3
  call void @llvm.lifetime.start.p0(i64 32, ptr nonnull %2) #8
  call void @llvm.memset.p0.i64(ptr noundef nonnull align 16 dereferenceable(32) %2, i8 0, i64 32, i1 false)
  %21 = zext i8 %20 to i64
  %22 = getelementptr inbounds nuw %struct.mbedtls_ssl_ticket_key, ptr %0, i64 %21
  %23 = tail call i64 @time(ptr noundef null) #8
  %24 = getelementptr inbounds nuw i8, ptr %22, i64 8
  store i64 %23, ptr %24, align 8, !tbaa !15
  %25 = getelementptr inbounds nuw i8, ptr %0, i64 244
  %26 = load i32, ptr %25, align 4, !tbaa !14
  %27 = getelementptr inbounds nuw i8, ptr %22, i64 16
  store i32 %26, ptr %27, align 8, !tbaa !17
  %28 = getelementptr inbounds nuw i8, ptr %0, i64 248
  %29 = load ptr, ptr %28, align 8, !tbaa !18
  %30 = getelementptr inbounds nuw i8, ptr %0, i64 256
  %31 = load ptr, ptr %30, align 8, !tbaa !19
  %32 = tail call i32 %29(ptr noundef %31, ptr noundef nonnull %22, i64 noundef 4) #8
  %.not.i = icmp eq i32 %32, 0
  br i1 %.not.i, label %33, label %ssl_ticket_gen_key.exit

33:                                               ; preds = %18
  %34 = load ptr, ptr %28, align 8, !tbaa !18
  %35 = load ptr, ptr %30, align 8, !tbaa !19
  %36 = call i32 %34(ptr noundef %35, ptr noundef nonnull %2, i64 noundef 32) #8
  %.not17.i = icmp eq i32 %36, 0
  br i1 %.not17.i, label %37, label %ssl_ticket_gen_key.exit

37:                                               ; preds = %33
  %38 = getelementptr inbounds nuw i8, ptr %22, i64 24
  %.val.i = load ptr, ptr %38, align 8, !tbaa !9
  %39 = icmp eq ptr %.val.i, null
  br i1 %39, label %mbedtls_cipher_get_key_bitlen.exit.i, label %40

40:                                               ; preds = %37
  %41 = getelementptr inbounds nuw i8, ptr %.val.i, i64 8
  %42 = load i32, ptr %41, align 8
  %43 = lshr i32 %42, 2
  %44 = and i32 %43, 960
  br label %mbedtls_cipher_get_key_bitlen.exit.i

mbedtls_cipher_get_key_bitlen.exit.i:             ; preds = %40, %37
  %.0.i.i = phi i32 [ %44, %40 ], [ 0, %37 ]
  %45 = call i32 @mbedtls_cipher_setkey(ptr noundef nonnull %38, ptr noundef nonnull %2, i32 noundef %.0.i.i, i32 noundef 1) #8
  call void @mbedtls_platform_zeroize(ptr noundef nonnull %2, i64 noundef 32) #8
  br label %ssl_ticket_gen_key.exit

ssl_ticket_gen_key.exit:                          ; preds = %18, %33, %mbedtls_cipher_get_key_bitlen.exit.i
  %.0.i = phi i32 [ %45, %mbedtls_cipher_get_key_bitlen.exit.i ], [ %32, %18 ], [ %36, %33 ]
  call void @llvm.lifetime.end.p0(i64 32, ptr nonnull %2) #8
  br label %46

46:                                               ; preds = %1, %ssl_ticket_gen_key.exit, %13
  %.1 = phi i32 [ %.0.i, %ssl_ticket_gen_key.exit ], [ 0, %13 ], [ 0, %1 ]
  ret i32 %.1
}